; Function Attrs: nounwind uwtable
define void @ossl_ctx_global_properties_free(ptr noundef %0) local_unnamed_addr #0 {
  %.not = icmp eq ptr %0, null
  br i1 %.not, label %4, label %2

2:                                                ; preds = %1
  %3 = load ptr, ptr %0, align 8, !tbaa !3
  tail call void @ossl_property_free(ptr noundef %3) #7
  tail call void @CRYPTO_free(ptr noundef nonnull %0, ptr noundef nonnull @.str, i32 noundef 120) #7
  br label %4

4:                                                ; preds = %2, %1
  ret void
}